target datalayout = "e-m:e-p270:32:32-p271:32:32-p272:64:64-i64:64-i128:128-f80:128-n8:16:32:64-S128"
target triple = "x86_64-pc-linux-gnu"

%struct.gmx_tng_trajectory = type { ptr, i8, i64, i8, double, i8, i32, i32 }

; Function Attrs: mustprogress uwtable
define void @_Z13gmx_tng_closePP18gmx_tng_trajectory(ptr noundef %0) #0 {
  %2 = alloca ptr, align 8
  %3 = alloca ptr, align 8
  store ptr %0, ptr %2, align 8, !tbaa !10
  %4 = load ptr, ptr %2, align 8, !tbaa !10
  %5 = icmp eq ptr %4, null
  br i1 %5, label %10, label %6

6:                                                ; preds = %1
  %7 = load ptr, ptr %2, align 8, !tbaa !10
  %8 = load ptr, ptr %7, align 8, !tbaa !13
  %9 = icmp eq ptr %8, null
  br i1 %9, label %10, label %11

10:                                               ; preds = %6, %1
  br label %27

11:                                               ; preds = %6
  call void @llvm.lifetime.start.p0(i64 8, ptr %3) #16
  %12 = load ptr, ptr %2, align 8, !tbaa !10
  %13 = load ptr, ptr %12, align 8, !tbaa !13
  %14 = getelementptr inbounds nuw %struct.gmx_tng_trajectory, ptr %13, i32 0, i32 0
  store ptr %14, ptr %3, align 8, !tbaa !24
  %15 = load ptr, ptr %3, align 8, !tbaa !24
  %16 = icmp ne ptr %15, null
  br i1 %16, label %17, label %20

17:                                               ; preds = %11
  %18 = load ptr, ptr %3, align 8, !tbaa !24
  %19 = call i32 @tng_util_trajectory_close(ptr noundef %18)
  br label %20

20:                                               ; preds = %17, %11
  %21 = load ptr, ptr %2, align 8, !tbaa !10
  %22 = load ptr, ptr %21, align 8, !tbaa !13
  %23 = icmp eq ptr %22, null
  br i1 %23, label %25, label %24

24:                                               ; preds = %20
  call void @_ZdlPvm(ptr noundef %22, i64 noundef 56) #19
  br label %25

25:                                               ; preds = %24, %20
  %26 = load ptr, ptr %2, align 8, !tbaa !10
  store ptr null, ptr %26, align 8, !tbaa !13
  call void @llvm.lifetime.end.p0(i64 8, ptr %3) #16
  br label %27

27:                                               ; preds = %25, %10
  ret void
}