; Function Attrs: mustprogress uwtable
define void @_Z13gmx_tng_closePP18gmx_tng_trajectory(ptr noundef %0) local_unnamed_addr #0 {
  %2 = icmp eq ptr %0, null
  br i1 %2, label %12, label %3

3:                                                ; preds = %1
  %4 = load ptr, ptr %0, align 8, !tbaa !4
  %5 = icmp eq ptr %4, null
  br i1 %5, label %12, label %6

6:                                                ; preds = %3
  %7 = tail call i32 @tng_util_trajectory_close(ptr noundef nonnull %4)
  %8 = load ptr, ptr %0, align 8, !tbaa !4
  %9 = icmp eq ptr %8, null
  br i1 %9, label %11, label %10

10:                                               ; preds = %6
  tail call void @_ZdlPvm(ptr noundef nonnull %8, i64 noundef 56) #24
  br label %11

11:                                               ; preds = %10, %6
  store ptr null, ptr %0, align 8, !tbaa !4
  br label %12

12:                                               ; preds = %1, %3, %11
  ret void
}